; Function Attrs: nounwind uwtable
define void @lv_obj_invalidate(ptr noundef %0) local_unnamed_addr #0 {
  %2 = alloca %struct.lv_area_t, align 4
  call void @llvm.lifetime.start.p0(i64 16, ptr nonnull %2) #8
  %3 = tail call i32 @lv_obj_get_ext_draw_size(ptr noundef %0) #8
  %4 = getelementptr inbounds nuw i8, ptr %0, i64 40
  %5 = load i32, ptr %4, align 4, !tbaa !31
  %6 = getelementptr inbounds nuw i8, ptr %0, i64 44
  %7 = load i32, ptr %6, align 4, !tbaa !32
  %8 = getelementptr inbounds nuw i8, ptr %2, i64 4
  %9 = getelementptr inbounds nuw i8, ptr %0, i64 48
  %10 = load i32, ptr %9, align 4, !tbaa !33
  %11 = getelementptr inbounds nuw i8, ptr %2, i64 8
  %12 = getelementptr inbounds nuw i8, ptr %0, i64 52
  %13 = load i32, ptr %12, align 4, !tbaa !34
  %14 = getelementptr inbounds nuw i8, ptr %2, i64 12
  %15 = sub nsw i32 %5, %3
  store i32 %15, ptr %2, align 4, !tbaa !31
  %16 = sub nsw i32 %7, %3
  store i32 %16, ptr %8, align 4, !tbaa !32
  %17 = add nsw i32 %10, %3
  store i32 %17, ptr %11, align 4, !tbaa !33
  %18 = add nsw i32 %13, %3
  store i32 %18, ptr %14, align 4, !tbaa !34
  call void @lv_obj_invalidate_area(ptr noundef %0, ptr noundef nonnull %2)
  call void @llvm.lifetime.end.p0(i64 16, ptr nonnull %2) #8
  ret void
}